; Function Attrs: nounwind uwtable
define range(i32 -1, 1) i32 @tjCompress2(ptr noundef %0, ptr noundef %1, i32 noundef %2, i32 noundef %3, i32 noundef %4, i32 noundef %5, ptr noundef %6, ptr noundef %7, i32 noundef %8, i32 noundef %9, i32 noundef %10) local_unnamed_addr #0 {
  %12 = alloca i64, align 8
  %.not = icmp eq ptr %0, null
  br i1 %.not, label %13, label %16

13:                                               ; preds = %11
  %14 = tail call align 16 ptr @llvm.threadlocal.address.p0(ptr align 16 @errStr)
  %15 = tail call i32 (ptr, i64, ptr, ...) @snprintf(ptr noundef nonnull dereferenceable(1) %14, i64 noundef 200, ptr noundef nonnull @.str.4, ptr noundef nonnull @tjCompress2.FUNCTION_NAME) #26
  br label %57

16:                                               ; preds = %11
  %17 = getelementptr inbounds i8, ptr %0, i64 1528
  store i32 0, ptr %17, align 8
  %18 = getelementptr inbounds i8, ptr %0, i64 1740
  store i32 0, ptr %18, align 4
  %19 = icmp eq ptr %7, null
  %20 = icmp ugt i32 %8, 6
  %or.cond3 = or i1 %19, %20
  %21 = icmp ugt i32 %9, 100
  %or.cond7 = or i1 %or.cond3, %21
  br i1 %or.cond7, label %22, label %27

22:                                               ; preds = %16
  %23 = getelementptr inbounds i8, ptr %0, i64 1540
  %24 = tail call i32 (ptr, i64, ptr, ...) @snprintf(ptr noundef nonnull dereferenceable(1) %23, i64 noundef 200, ptr noundef nonnull @.str, ptr noundef nonnull @tjCompress2.FUNCTION_NAME, ptr noundef nonnull @.str.1) #26
  store i32 1, ptr %18, align 4
  %25 = tail call align 16 ptr @llvm.threadlocal.address.p0(ptr align 16 @errStr)
  %26 = tail call i32 (ptr, i64, ptr, ...) @snprintf(ptr noundef nonnull dereferenceable(1) %25, i64 noundef 200, ptr noundef nonnull @.str, ptr noundef nonnull @tjCompress2.FUNCTION_NAME, ptr noundef nonnull @.str.1) #26
  br label %57

27:                                               ; preds = %16
  %28 = getelementptr inbounds i8, ptr %0, i64 1752
  store i32 %9, ptr %28, align 8
  %29 = getelementptr inbounds i8, ptr %0, i64 1756
  store i32 %8, ptr %29, align 4
  %30 = lshr i32 %10, 1
  %.lobit.i = and i32 %30, 1
  %31 = getelementptr inbounds i8, ptr %0, i64 1744
  store i32 %.lobit.i, ptr %31, align 8
  %32 = and i32 %10, 8
  %.not.i = icmp eq i32 %32, 0
  br i1 %.not.i, label %33, label %.sink.split.i

33:                                               ; preds = %27
  %34 = and i32 %10, 16
  %.not39.i = icmp eq i32 %34, 0
  br i1 %.not39.i, label %35, label %.sink.split.i

35:                                               ; preds = %33
  %36 = and i32 %10, 32
  %.not40.i = icmp eq i32 %36, 0
  br i1 %.not40.i, label %38, label %.sink.split.i

.sink.split.i:                                    ; preds = %35, %33, %27
  %.str.125.sink.i = phi ptr [ @.str.123, %27 ], [ @.str.125, %33 ], [ @.str.126, %35 ]
  %37 = tail call i32 @setenv(ptr noundef nonnull %.str.125.sink.i, ptr noundef nonnull @.str.124, i32 noundef 1) #26
  %.pre = load i32, ptr %28, align 8
  br label %38

38:                                               ; preds = %.sink.split.i, %35
  %39 = phi i32 [ %.pre, %.sink.split.i ], [ %9, %35 ]
  %40 = lshr i32 %10, 8
  %.lobit41.i = and i32 %40, 1
  %41 = getelementptr inbounds i8, ptr %0, i64 1776
  store i32 %.lobit41.i, ptr %41, align 8
  %42 = lshr i32 %10, 10
  %.lobit42.i = and i32 %42, 1
  %43 = getelementptr inbounds i8, ptr %0, i64 1748
  store i32 %.lobit42.i, ptr %43, align 4
  %44 = icmp slt i32 %39, 96
  %45 = and i32 %10, 4096
  %.not44.i = icmp eq i32 %45, 0
  %or.cond.i = and i1 %.not44.i, %44
  %46 = getelementptr inbounds i8, ptr %0, i64 1780
  %. = zext i1 %or.cond.i to i32
  store i32 %., ptr %46, align 4
  %47 = lshr i32 %10, 13
  %.lobit45.i = and i32 %47, 1
  %48 = getelementptr inbounds i8, ptr %0, i64 1532
  store i32 %.lobit45.i, ptr %48, align 4
  %49 = lshr i32 %10, 14
  %.lobit46.i = and i32 %49, 1
  %50 = getelementptr inbounds i8, ptr %0, i64 1788
  store i32 %.lobit46.i, ptr %50, align 4
  %51 = and i32 %10, 32768
  %.not47.i = icmp eq i32 %51, 0
  br i1 %.not47.i, label %processFlags.exit, label %52

52:                                               ; preds = %38
  %53 = getelementptr inbounds i8, ptr %0, i64 1792
  store i32 500, ptr %53, align 8
  br label %processFlags.exit

processFlags.exit:                                ; preds = %38, %52
  %54 = load i64, ptr %7, align 8
  store i64 %54, ptr %12, align 8
  %55 = call i32 @tj3Compress8(ptr noundef nonnull %0, ptr noundef %1, i32 noundef %2, i32 noundef %3, i32 noundef %4, i32 noundef %5, ptr noundef %6, ptr noundef nonnull %12)
  %56 = load i64, ptr %12, align 8
  store i64 %56, ptr %7, align 8
  br label %57

57:                                               ; preds = %22, %processFlags.exit, %13
  %.0 = phi i32 [ -1, %13 ], [ -1, %22 ], [ %55, %processFlags.exit ]
  ret i32 %.0
}